; Function Attrs: nounwind sspstrong uwtable
define dso_local void @rb_st_free_table(ptr noundef %0) local_unnamed_addr #0 {
  %2 = getelementptr inbounds nuw i8, ptr %0, i64 24
  %3 = load ptr, ptr %2, align 8, !tbaa !25
  tail call void @ruby_xfree(ptr noundef %3) #25
  %4 = getelementptr inbounds nuw i8, ptr %0, i64 48
  %5 = load ptr, ptr %4, align 8, !tbaa !26
  tail call void @ruby_xfree(ptr noundef %5) #25
  tail call void @ruby_xfree(ptr noundef %0) #25
  ret void
}